$ openssl x509 -text -noout < [CERTIFICATE]
Certificate:
    Data:
        Version: 3 (0x2)
        Serial Number: 765 (0x2fd)
        Signature Algorithm: sha256WithRSAEncryption
        Issuer: C = US, ST = Washington, L = Bellevue, O = Google Inc, CN = Cast CRL Root
        Validity
            Not Before: Dec 16 23:48:03 2019 GMT
            Not After : Dec 15 23:48:03 2020 GMT
        Subject: C = US, ST = Washington, L = Bellevue, O = Google Inc, CN = Cast CRL Inter
        Subject Public Key Info:
            Public Key Algorithm: rsaEncryption
                RSA Public-Key: (2048 bit)
                Modulus:
                    00:c9:1d:60:99:43:e8:f6:67:20:6e:22:10:95:02:
                    7b:dc:00:39:59:9c:b1:93:0a:14:5f:a8:03:d9:69:
                    a1:67:f0:7a:03:db:28:b1:8a:e1:8a:22:19:2f:4c:
                    58:25:dc:80:70:4e:9b:95:c7:ab:d0:8a:f2:13:4f:
                    84:70:dc:7a:01:bc:0c:21:d7:11:c6:cf:2d:3c:7e:
                    0b:be:19:eb:7e:7a:27:4b:5b:fd:ba:7f:04:4e:9e:
                    54:f7:9b:56:26:03:d8:a1:ec:7a:c7:fe:7c:4c:69:
                    df:62:fc:71:7f:92:ce:d1:48:4e:a6:20:16:2e:c2:
                    00:e8:e1:8e:08:8e:e2:1f:d8:c5:ae:6e:47:0a:ad:
                    88:41:19:e8:fd:c1:ce:72:1a:b7:96:ac:9a:35:72:
                    bd:a1:8f:38:fc:f8:1c:b1:75:7d:f9:25:cf:64:ba:
                    18:43:47:12:61:98:52:1c:1a:db:66:a0:17:b1:f4:
                    11:50:b2:6f:9f:21:38:6f:5a:bb:cd:ed:57:16:b2:
                    6c:e7:ef:ae:8a:9a:9b:64:73:21:da:95:66:2e:aa:
                    f2:6b:19:1a:e5:7e:76:30:24:d4:8e:3b:41:55:5f:
                    58:f6:66:ce:e3:14:d5:0b:04:08:8c:5a:39:83:cb:
                    c6:93:2f:3f:b1:f9:6d:e6:2e:a1:4c:50:75:24:c7:
                    fc:8d
                Exponent: 65537 (0x10001)
        X509v3 extensions:
            X509v3 Subject Key Identifier:
                4D:5B:60:B6:1F:71:39:3B:17:E9:51:9C:40:DA:12:18:C0:BC:72:3A
            X509v3 Authority Key Identifier:
                keyid:CA:92:70:6E:A5:C9:4A:25:49:04:54:33:27:61:36:16:03:4A:2E:6E

            X509v3 Basic Constraints: critical
                CA:TRUE
            X509v3 Key Usage:
                Digital Signature, Key Encipherment, Certificate Sign
    Signature Algorithm: sha256WithRSAEncryption
         52:49:20:cc:8b:3f:3b:49:8f:8b:80:8a:f6:a3:fc:0f:af:9a:
         44:c2:7f:62:bb:31:70:6b:e4:79:d7:00:6d:70:4d:a1:a4:da:
         62:da:02:fd:a9:c8:52:dd:a5:be:e8:c2:6b:c0:32:f6:31:3b:
         69:c7:4a:3a:f6:e9:b7:57:92:9d:75:23:a3:5b:68:e8:26:ec:
         18:3d:9f:55:bd:52:a1:2b:ae:d8:9d:4d:ef:10:53:ec:13:70:
         4a:c8:13:a4:62:43:54:f6:18:9b:0e:13:23:05:42:fd:9e:b1:
         7f:f5:07:ff:6b:c7:e9:85:af:cb:4a:54:fa:46:81:2b:79:78:
         c9:8f:c5:e2:07:1b:ed:79:df:34:76:f4:61:dc:92:6f:e6:8b:
         b9:e6:91:b2:fc:29:bf:f9:31:d7:38:da:c5:66:e2:db:d9:d3:
         3f:26:e0:4e:d1:78:7d:1a:68:5c:36:60:28:51:b4:66:26:19:
         e0:46:df:0a:d1:ca:a6:87:a8:bf:ed:97:ca:bc:3e:a7:7f:2b:
         56:c3:b0:c2:b3:01:b4:1c:b0:96:5d:7f:ef:2e:cb:cb:26:ef:
         a5:2e:c0:e7:8a:07:42:16:59:ec:9a:6d:0a:4a:02:d3:cf:dd:
         31:ba:88:91:01:c2:5c:e6:5f:42:dc:a0:1b:4c:a9:d0:ae:c6:
         d7:81:9c:a2
-----BEGIN CERTIFICATE-----
MIIDoTCCAomgAwIBAgICAv0wDQYJKoZIhvcNAQELBQAwYjELMAkGA1UEBhMCVVMx
EzARBgNVBAgMCldhc2hpbmd0b24xETAPBgNVBAcMCEJlbGxldnVlMRMwEQYDVQQK
DApHb29nbGUgSW5jMRYwFAYDVQQDDA1DYXN0IENSTCBSb290MB4XDTE5MTIxNjIz
NDgwM1oXDTIwMTIxNTIzNDgwM1owYzELMAkGA1UEBhMCVVMxEzARBgNVBAgMCldh
c2hpbmd0b24xETAPBgNVBAcMCEJlbGxldnVlMRMwEQYDVQQKDApHb29nbGUgSW5j
MRcwFQYDVQQDDA5DYXN0IENSTCBJbnRlcjCCASIwDQYJKoZIhvcNAQEBBQADggEP
ADCCAQoCggEBAMkdYJlD6PZnIG4iEJUCe9wAOVmcsZMKFF+oA9lpoWfwegPbKLGK
4YoiGS9MWCXcgHBOm5XHq9CK8hNPhHDcegG8DCHXEcbPLTx+C74Z6356J0tb/bp/
BE6eVPebViYD2KHsesf+fExp32L8cX+SztFITqYgFi7CAOjhjgiO4h/Yxa5uRwqt
iEEZ6P3BznIat5asmjVyvaGPOPz4HLF1ffklz2S6GENHEmGYUhwa22agF7H0EVCy
b58hOG9au83tVxaybOfvroqam2RzIdqVZi6q8msZGuV+djAk1I47QVVfWPZmzuMU
1QsECIxaOYPLxpMvP7H5beYuoUxQdSTH/I0CAwEAAaNgMF4wHQYDVR0OBBYEFE1b
YLYfcTk7F+lRnEDaEhjAvHI6MB8GA1UdIwQYMBaAFMqScG6lyUolSQRUMydhNhYD
Si5uMA8GA1UdEwEB/wQFMAMBAf8wCwYDVR0PBAQDAgKkMA0GCSqGSIb3DQEBCwUA
A4IBAQBSSSDMiz87SY+LgIr2o/wPr5pEwn9iuzFwa+R51wBtcE2hpNpi2gL9qchS
3aW+6MJrwDL2MTtpx0o69um3V5KddSOjW2joJuwYPZ9VvVKhK67YnU3vEFPsE3BK
yBOkYkNU9hibDhMjBUL9nrF/9Qf/a8fpha/LSlT6RoEreXjJj8XiBxvted80dvRh
3JJv5ou55pGy/Cm/+THXONrFZuLb2dM/JuBO0Xh9GmhcNmAoUbRmJhngRt8K0cqm
h6i/7ZfKvD6nfytWw7DCswG0HLCWXX/vLsvLJu+lLsDnigdCFlnsmm0KSgLTz90x
uoiRAcJc5l9C3KAbTKnQrsbXgZyi
-----END CERTIFICATE-----
