$ openssl x509 -text -noout < [CERTIFICATE]
Certificate:
    Data:
        Version: 3 (0x2)
        Serial Number: 15 (0xf)
        Signature Algorithm: sha256WithRSAEncryption
        Issuer: C = US, ST = Washington, L = Bellevue, O = Google Inc, CN = Test Device
        Validity
            Not Before: Dec 16 23:56:49 2019 GMT
            Not After : Dec 18 23:56:49 2019 GMT
        Subject: C = US, ST = Washington, L = Bellevue, O = Google Inc, CN = Test Device
        Subject Public Key Info:
            Public Key Algorithm: rsaEncryption
                RSA Public-Key: (2048 bit)
                Modulus:
                    00:d8:82:71:27:1f:1b:26:82:04:f8:e0:3e:32:8d:
                    ed:a1:4e:e7:29:fc:a9:dc:0e:b8:a3:2b:6d:ae:79:
                    3d:ce:14:9a:6c:0d:59:ff:5b:96:fe:93:fb:5f:d6:
                    4b:db:03:c5:f0:c9:4c:6d:25:5f:50:84:33:03:0a:
                    dc:36:5b:2e:27:33:94:5e:9a:97:57:9c:78:16:44:
                    68:6e:c5:6d:38:1c:af:33:2b:69:e8:be:50:77:0d:
                    b0:2f:6f:df:f9:20:0d:b9:ad:95:b6:00:40:ba:4a:
                    73:e3:f2:d2:48:b7:ff:ae:87:24:95:ce:f7:d5:74:
                    78:cd:21:5c:d4:14:52:7e:70:83:2d:2b:06:09:c1:
                    35:ab:3c:e4:41:90:17:d5:54:46:40:c4:03:62:ba:
                    37:47:f3:b6:2f:c8:c4:60:70:2e:88:9b:a8:da:28:
                    08:65:95:38:22:e2:04:ef:9e:7d:ea:3a:45:5b:04:
                    11:e9:35:c7:40:e5:e3:b3:7d:c1:54:c6:00:1a:84:
                    87:5e:33:d2:19:e9:f3:16:bf:bb:d5:e8:60:7f:9a:
                    73:cd:25:fd:88:f1:d0:9d:8b:38:2e:3d:0a:71:ae:
                    55:86:62:b5:2a:eb:fa:8b:25:2f:97:be:db:6b:bd:
                    fe:dd:95:44:5b:38:ae:8c:77:7e:7c:5b:a2:78:09:
                    3e:f7
                Exponent: 65537 (0x10001)
        X509v3 extensions:
            X509v3 Basic Constraints:
                CA:FALSE
            X509v3 Key Usage:
                Digital Signature, Key Encipherment
    Signature Algorithm: sha256WithRSAEncryption
         60:e1:58:12:04:35:54:12:50:47:db:53:67:6a:ed:25:56:d6:
         6c:2e:04:d9:8e:7b:e9:24:82:ad:05:6e:9a:d2:77:02:71:39:
         43:a6:a5:01:3c:6c:16:0a:fb:17:21:b9:2e:fb:a7:96:44:12:
         fc:46:2a:16:77:c9:3e:fc:59:2b:96:da:8f:fb:28:e1:a0:be:
         4a:ef:b4:80:02:e3:8d:12:a0:58:78:83:3b:a9:0e:01:8c:45:
         4e:01:ff:a5:47:dc:f4:e6:04:67:4d:0e:45:02:26:34:db:b9:
         b4:e4:e8:6a:2d:f1:99:96:3c:7c:d5:2d:f0:c2:bf:55:d7:1d:
         7b:9d:ed:b8:3d:a1:94:31:8f:24:4d:ac:84:a8:58:14:3f:9f:
         8d:a8:8e:05:1b:16:c3:5e:6f:39:f5:bb:93:3b:9b:fb:11:d0:
         6e:4c:82:78:b5:b9:c8:3b:ca:a4:03:f5:ef:f6:28:ca:ce:34:
         15:c2:6e:46:ea:45:ee:10:de:5e:f9:95:e5:3d:e4:4b:ab:ca:
         e8:55:d8:fd:bd:36:31:cf:2f:b1:ef:84:b9:73:31:77:ee:ed:
         73:8b:c5:c6:fc:5c:24:79:45:f0:98:e0:6d:4a:b0:d2:03:80:
         1a:8c:ff:0a:27:50:50:72:59:7f:ff:4e:a4:dd:12:97:c1:91:
         5a:44:57:86
-----BEGIN CERTIFICATE-----
MIIDVTCCAj2gAwIBAgIBDzANBgkqhkiG9w0BAQsFADBgMQswCQYDVQQGEwJVUzET
MBEGA1UECAwKV2FzaGluZ3RvbjERMA8GA1UEBwwIQmVsbGV2dWUxEzARBgNVBAoM
Ckdvb2dsZSBJbmMxFDASBgNVBAMMC1Rlc3QgRGV2aWNlMB4XDTE5MTIxNjIzNTY0
OVoXDTE5MTIxODIzNTY0OVowYDELMAkGA1UEBhMCVVMxEzARBgNVBAgMCldhc2hp
bmd0b24xETAPBgNVBAcMCEJlbGxldnVlMRMwEQYDVQQKDApHb29nbGUgSW5jMRQw
EgYDVQQDDAtUZXN0IERldmljZTCCASIwDQYJKoZIhvcNAQEBBQADggEPADCCAQoC
ggEBANiCcScfGyaCBPjgPjKN7aFO5yn8qdwOuKMrba55Pc4UmmwNWf9blv6T+1/W
S9sDxfDJTG0lX1CEMwMK3DZbLiczlF6al1eceBZEaG7FbTgcrzMraei+UHcNsC9v
3/kgDbmtlbYAQLpKc+Py0ki3/66HJJXO99V0eM0hXNQUUn5wgy0rBgnBNas85EGQ
F9VURkDEA2K6N0fzti/IxGBwLoibqNooCGWVOCLiBO+efeo6RVsEEek1x0Dl47N9
wVTGABqEh14z0hnp8xa/u9XoYH+ac80l/Yjx0J2LOC49CnGuVYZitSrr+oslL5e+
22u9/t2VRFs4rox3fnxbongJPvcCAwEAAaMaMBgwCQYDVR0TBAIwADALBgNVHQ8E
BAMCBaAwDQYJKoZIhvcNAQELBQADggEBAGDhWBIENVQSUEfbU2dq7SVW1mwuBNmO
e+kkgq0FbprSdwJxOUOmpQE8bBYK+xchuS77p5ZEEvxGKhZ3yT78WSuW2o/7KOGg
vkrvtIAC440SoFh4gzupDgGMRU4B/6VH3PTmBGdNDkUCJjTbubTk6Got8ZmWPHzV
LfDCv1XXHXud7bg9oZQxjyRNrISoWBQ/n42ojgUbFsNebzn1u5M7m/sR0G5Mgni1
ucg7yqQD9e/2KMrONBXCbkbqRe4Q3l75leU95EuryuhV2P29NjHPL7HvhLlzMXfu
7XOLxcb8XCR5RfCY4G1KsNIDgBqM/wonUFByWX//TqTdEpfBkVpEV4Y=
-----END CERTIFICATE-----
