$ openssl x509 -text -noout < [CERTIFICATE]
Certificate:
    Data:
        Version: 3 (0x2)
        Serial Number: 1234 (0x4d2)
        Signature Algorithm: sha256WithRSAEncryption
        Issuer: C = US, ST = Washington, L = Bellevue, O = Google Inc, CN = Intermediate
        Validity
            Not Before: Dec 12 02:58:20 2019 GMT
            Not After : Dec 11 02:58:20 2020 GMT
        Subject: C = US, ST = Washington, L = Bellevue, O = Google Inc, CN = Device
        Subject Public Key Info:
            Public Key Algorithm: rsaEncryption
                RSA Public-Key: (2048 bit)
                Modulus:
                    00:e2:12:58:61:b3:d6:2e:b0:36:ed:38:66:2d:ff:
                    ee:f6:df:7e:44:de:9f:fa:91:87:66:9c:36:16:b5:
                    b0:67:b6:3c:f7:5c:89:68:44:71:98:15:f1:d1:08:
                    13:4d:48:3a:62:96:23:1d:cf:36:0f:96:20:ed:cf:
                    7d:c1:3d:dd:83:84:7e:e1:7d:78:29:54:53:a0:87:
                    cb:27:b6:e2:6b:fd:66:a9:7e:8f:92:d7:9e:8a:f6:
                    27:ef:fd:f1:01:f8:f7:27:b1:6c:8c:0d:a2:b0:07:
                    c9:06:24:07:87:62:5f:00:1d:61:4a:cd:6f:31:76:
                    6a:68:be:77:da:d8:76:13:93:cc:2f:80:79:eb:ae:
                    47:a9:8e:ac:ff:85:ea:59:b6:e5:76:b8:a9:33:6b:
                    dc:ea:ab:92:48:fb:a7:b2:2b:4c:e5:74:ac:6c:5a:
                    69:aa:c1:65:96:98:b7:4f:b4:08:4a:e5:46:16:54:
                    18:93:e7:b1:ae:e9:a7:84:73:29:7f:d6:76:f8:2a:
                    26:97:6c:23:0f:61:7e:1e:fc:fb:6d:f4:62:4c:d7:
                    a2:e9:d3:80:22:9f:fc:4e:9c:4f:51:fd:a3:66:76:
                    ec:96:b9:4d:16:e6:dc:d5:49:bc:12:76:89:ea:8a:
                    ab:85:69:02:b2:c5:17:e6:1c:9c:f9:ea:2f:62:5d:
                    24:b9
                Exponent: 65537 (0x10001)
        X509v3 extensions:
            X509v3 Basic Constraints:
                CA:FALSE
            X509v3 Key Usage:
                Digital Signature, Key Encipherment
    Signature Algorithm: sha256WithRSAEncryption
         65:86:e4:c3:6f:a8:80:7f:1d:cc:64:8d:c2:cb:01:f9:40:5e:
         c2:0d:98:25:9d:18:1d:7d:f9:a2:be:4a:4b:ab:38:ad:f0:b1:
         fd:1d:87:fa:f4:a5:9d:f2:ca:86:de:7c:fa:99:56:79:3a:06:
         fa:24:2d:c3:19:ba:5a:8d:5e:f4:8a:8a:63:87:6b:45:6c:2a:
         91:f0:5a:b2:bc:78:9c:10:c9:c4:a7:88:23:c8:d7:a7:8a:c0:
         23:4a:d9:9c:a4:f8:6e:d3:9b:e6:c8:40:ef:ee:bc:58:cd:91:
         98:7b:32:d5:6f:f7:1d:87:79:ec:25:d1:e6:b8:0c:7d:e8:76:
         ec:2a:4d:75:36:f2:27:0b:56:f4:70:9c:22:3c:e7:03:00:ff:
         71:ff:57:6b:10:c1:d7:76:b5:09:5f:43:25:59:d3:fd:12:56:
         fb:5b:56:38:5d:c7:60:a6:42:13:71:f1:a6:9d:d7:2d:17:69:
         c7:20:67:81:52:f2:98:3d:9a:91:39:12:b2:54:ad:61:7f:98:
         74:c2:4d:5c:a2:7e:94:95:dd:36:f3:f3:5c:36:a0:d8:62:32:
         a8:d5:44:05:46:09:29:4b:be:cb:19:39:1a:0e:7f:bf:32:05:
         98:00:9e:6c:2b:a6:a1:72:e9:a3:70:01:32:a3:d4:39:ea:2c:
         d8:dc:19:5a
-----BEGIN CERTIFICATE-----
MIIDUjCCAjqgAwIBAgICBNIwDQYJKoZIhvcNAQELBQAwYTELMAkGA1UEBhMCVVMx
EzARBgNVBAgMCldhc2hpbmd0b24xETAPBgNVBAcMCEJlbGxldnVlMRMwEQYDVQQK
DApHb29nbGUgSW5jMRUwEwYDVQQDDAxJbnRlcm1lZGlhdGUwHhcNMTkxMjEyMDI1
ODIwWhcNMjAxMjExMDI1ODIwWjBbMQswCQYDVQQGEwJVUzETMBEGA1UECAwKV2Fz
aGluZ3RvbjERMA8GA1UEBwwIQmVsbGV2dWUxEzARBgNVBAoMCkdvb2dsZSBJbmMx
DzANBgNVBAMMBkRldmljZTCCASIwDQYJKoZIhvcNAQEBBQADggEPADCCAQoCggEB
AOISWGGz1i6wNu04Zi3/7vbffkTen/qRh2acNha1sGe2PPdciWhEcZgV8dEIE01I
OmKWIx3PNg+WIO3PfcE93YOEfuF9eClUU6CHyye24mv9Zql+j5LXnor2J+/98QH4
9yexbIwNorAHyQYkB4diXwAdYUrNbzF2ami+d9rYdhOTzC+AeeuuR6mOrP+F6lm2
5Xa4qTNr3Oqrkkj7p7IrTOV0rGxaaarBZZaYt0+0CErlRhZUGJPnsa7pp4RzKX/W
dvgqJpdsIw9hfh78+230YkzXounTgCKf/E6cT1H9o2Z27Ja5TRbm3NVJvBJ2ieqK
q4VpArLFF+YcnPnqL2JdJLkCAwEAAaMaMBgwCQYDVR0TBAIwADALBgNVHQ8EBAMC
BaAwDQYJKoZIhvcNAQELBQADggEBAGWG5MNvqIB/HcxkjcLLAflAXsINmCWdGB19
+aK+SkurOK3wsf0dh/r0pZ3yyobefPqZVnk6BvokLcMZulqNXvSKimOHa0VsKpHw
WrK8eJwQycSniCPI16eKwCNK2Zyk+G7Tm+bIQO/uvFjNkZh7MtVv9x2Heewl0ea4
DH3oduwqTXU28icLVvRwnCI85wMA/3H/V2sQwdd2tQlfQyVZ0/0SVvtbVjhdx2Cm
QhNx8aad1y0XaccgZ4FS8pg9mpE5ErJUrWF/mHTCTVyifpSV3Tbz81w2oNhiMqjV
RAVGCSlLvssZORoOf78yBZgAnmwrpqFy6aNwATKj1DnqLNjcGVo=
-----END CERTIFICATE-----

$ openssl x509 -text -noout < [CERTIFICATE]
Certificate:
    Data:
        Version: 3 (0x2)
        Serial Number: 42 (0x2a)
        Signature Algorithm: sha256WithRSAEncryption
        Issuer: C = US, ST = Washington, L = Bellevue, O = Google Inc, CN = Cast Root
        Validity
            Not Before: Dec 12 02:57:32 2019 GMT
            Not After : Dec 11 02:57:32 2020 GMT
        Subject: C = US, ST = Washington, L = Bellevue, O = Google Inc, CN = Intermediate
        Subject Public Key Info:
            Public Key Algorithm: rsaEncryption
                RSA Public-Key: (2048 bit)
                Modulus:
                    00:cc:58:a0:60:e9:3b:b8:31:03:e7:70:d7:81:ca:
                    e7:f6:a9:cb:75:44:91:01:ff:4f:3a:96:4a:cb:01:
                    80:97:29:90:d5:70:7a:7c:ee:7c:a7:9e:19:94:74:
                    3a:54:af:47:d9:21:c2:04:a9:b3:e9:59:c8:91:71:
                    aa:a8:2f:82:e1:de:40:97:42:54:26:51:5b:7c:fc:
                    c7:71:e2:5e:1f:c2:14:51:db:5d:6e:de:f5:42:71:
                    1c:48:17:7e:f3:79:9e:05:d1:b4:91:12:8e:9c:15:
                    1b:48:73:21:ed:f8:c3:63:ae:d9:6a:3f:6a:fe:41:
                    5a:7c:8d:8b:c1:ec:d8:80:67:ac:24:b2:56:bf:9b:
                    04:47:eb:a6:88:72:ce:20:dd:4b:f9:37:07:4e:a9:
                    4f:83:d5:08:80:e6:81:4d:f6:b7:da:29:e1:f2:47:
                    1e:2f:79:aa:a7:33:e0:cd:7d:0e:19:8a:02:0a:95:
                    3c:33:c3:c2:aa:28:4d:57:92:11:86:1b:77:40:f5:
                    6e:a6:9a:11:68:65:54:1f:83:50:7c:6e:0c:61:dc:
                    5a:0b:65:f9:53:d2:ab:6e:a0:3c:b5:ed:b8:3e:1f:
                    3b:2c:55:50:6d:95:d8:70:cf:7f:b4:b3:48:70:13:
                    25:6c:00:f3:71:33:29:ad:72:a6:f6:ee:06:14:8a:
                    b6:8d
                Exponent: 65537 (0x10001)
        X509v3 extensions:
            X509v3 Subject Key Identifier:
                B2:26:7F:CB:C6:F8:A8:0A:49:71:E3:05:03:D3:85:06:7D:F1:F7:8A
            X509v3 Authority Key Identifier:
                keyid:78:87:D8:AC:5F:0D:C7:15:CA:BC:7D:71:DF:E9:AF:13:FD:C1:0B:B5

            X509v3 Basic Constraints: critical
                CA:TRUE
            X509v3 Key Usage:
                Digital Signature, Key Encipherment, Certificate Sign
    Signature Algorithm: sha256WithRSAEncryption
         38:b3:29:b3:ff:3f:5b:3d:1a:31:d6:88:5d:b1:ef:40:af:a0:
         d9:8b:22:d9:c6:d1:b7:93:2b:06:7b:c7:7a:14:ec:57:3b:0e:
         b8:df:f5:ad:6a:3e:6d:7e:90:d5:d6:ff:74:82:c4:e3:29:34:
         c2:04:0b:66:44:01:5b:68:37:a5:62:6e:05:35:f5:a5:44:23:
         04:2c:bb:52:68:31:1e:9d:d2:0a:f2:78:25:4c:2f:00:b5:19:
         fe:e2:23:d3:1b:4d:7a:c4:c0:51:62:80:82:06:4d:6f:49:e6:
         6e:db:bb:28:e3:34:4f:38:2a:2d:95:89:d6:de:e5:0d:99:89:
         6a:d0:17:07:38:41:2b:7c:6e:c9:04:2e:e6:00:b4:03:9a:a2:
         38:08:be:a2:3e:fa:29:f0:1a:11:45:89:39:21:46:1e:8a:a0:
         e4:bd:0f:e9:4b:7d:20:ca:18:55:59:95:05:5c:a8:2a:bb:7a:
         05:3c:28:8d:f1:62:20:96:81:44:31:bd:11:2f:8a:82:43:2f:
         8b:e8:39:91:7a:ac:1e:36:0c:6d:05:5b:4a:a4:73:67:d8:5a:
         eb:6b:9f:f5:2e:af:00:75:c4:61:1e:17:f4:62:85:c4:a8:1e:
         4d:9a:d9:b2:22:13:15:95:c1:b2:0b:d0:b6:29:8d:77:54:b2:
         d2:a7:46:0f
-----BEGIN CERTIFICATE-----
MIIDmjCCAoKgAwIBAgIBKjANBgkqhkiG9w0BAQsFADBeMQswCQYDVQQGEwJVUzET
MBEGA1UECAwKV2FzaGluZ3RvbjERMA8GA1UEBwwIQmVsbGV2dWUxEzARBgNVBAoM
Ckdvb2dsZSBJbmMxEjAQBgNVBAMMCUNhc3QgUm9vdDAeFw0xOTEyMTIwMjU3MzJa
Fw0yMDEyMTEwMjU3MzJaMGExCzAJBgNVBAYTAlVTMRMwEQYDVQQIDApXYXNoaW5n
dG9uMREwDwYDVQQHDAhCZWxsZXZ1ZTETMBEGA1UECgwKR29vZ2xlIEluYzEVMBMG
A1UEAwwMSW50ZXJtZWRpYXRlMIIBIjANBgkqhkiG9w0BAQEFAAOCAQ8AMIIBCgKC
AQEAzFigYOk7uDED53DXgcrn9qnLdUSRAf9POpZKywGAlymQ1XB6fO58p54ZlHQ6
VK9H2SHCBKmz6VnIkXGqqC+C4d5Al0JUJlFbfPzHceJeH8IUUdtdbt71QnEcSBd+
83meBdG0kRKOnBUbSHMh7fjDY67Zaj9q/kFafI2LwezYgGesJLJWv5sER+umiHLO
IN1L+TcHTqlPg9UIgOaBTfa32inh8kceL3mqpzPgzX0OGYoCCpU8M8PCqihNV5IR
hht3QPVuppoRaGVUH4NQfG4MYdxaC2X5U9KrbqA8te24Ph87LFVQbZXYcM9/tLNI
cBMlbADzcTMprXKm9u4GFIq2jQIDAQABo2AwXjAdBgNVHQ4EFgQUsiZ/y8b4qApJ
ceMFA9OFBn3x94owHwYDVR0jBBgwFoAUeIfYrF8NxxXKvH1x3+mvE/3BC7UwDwYD
VR0TAQH/BAUwAwEB/zALBgNVHQ8EBAMCAqQwDQYJKoZIhvcNAQELBQADggEBADiz
KbP/P1s9GjHWiF2x70CvoNmLItnG0beTKwZ7x3oU7Fc7Drjf9a1qPm1+kNXW/3SC
xOMpNMIEC2ZEAVtoN6VibgU19aVEIwQsu1JoMR6d0gryeCVMLwC1Gf7iI9MbTXrE
wFFigIIGTW9J5m7buyjjNE84Ki2Vidbe5Q2ZiWrQFwc4QSt8bskELuYAtAOaojgI
vqI++inwGhFFiTkhRh6KoOS9D+lLfSDKGFVZlQVcqCq7egU8KI3xYiCWgUQxvREv
ioJDL4voOZF6rB42DG0FW0qkc2fYWutrn/UurwB1xGEeF/RihcSoHk2a2bIiExWV
wbIL0LYpjXdUstKnRg8=
-----END CERTIFICATE-----

$ openssl x509 -text -noout < [CERTIFICATE]
Certificate:
    Data:
        Version: 3 (0x2)
        Serial Number: 89 (0x59)
        Signature Algorithm: sha256WithRSAEncryption
        Issuer: C = US, ST = Washington, L = Bellevue, O = Google Inc, CN = Cast Root
        Validity
            Not Before: Dec 12 02:56:51 2019 GMT
            Not After : Dec 11 02:56:51 2020 GMT
        Subject: C = US, ST = Washington, L = Bellevue, O = Google Inc, CN = Cast Root
        Subject Public Key Info:
            Public Key Algorithm: rsaEncryption
                RSA Public-Key: (2048 bit)
                Modulus:
                    00:cc:43:8b:9b:7a:4e:fe:d7:e8:f5:b4:98:f5:d0:
                    1a:e8:b5:e9:7a:01:68:1d:13:de:4f:bf:51:f6:4f:
                    ac:3e:ec:2e:f9:a1:9b:33:f1:01:d1:9a:d9:91:48:
                    d7:cd:55:88:45:22:8f:77:d3:32:77:4f:75:fd:b4:
                    97:6f:82:9e:88:c5:bd:24:9a:0d:8c:65:91:49:7f:
                    69:35:cf:82:9e:ef:a0:d7:b9:cb:f1:d8:85:28:62:
                    48:fb:9f:a3:a3:a5:81:06:e5:95:54:0b:67:c3:3c:
                    c7:7b:08:f1:e6:31:5e:a8:cf:a0:e2:9c:44:90:32:
                    fb:7e:d9:84:2b:18:f4:ab:32:9c:0a:99:53:27:33:
                    cf:4c:cd:f2:fa:d7:be:52:40:d1:45:c1:3a:51:ae:
                    cb:a4:0c:66:66:5a:2f:2f:ae:9b:88:e6:69:df:c5:
                    da:56:3f:1d:1a:9e:95:e8:ec:5f:ad:14:d9:fb:83:
                    76:31:e1:ed:bf:cb:dc:da:4f:ca:95:0c:3d:2b:fd:
                    b3:37:c4:d9:e5:5c:1b:70:91:4a:ec:6c:2e:ec:9a:
                    24:0d:92:df:be:93:33:8e:4a:37:32:86:db:d5:08:
                    9c:86:6e:56:70:9e:e4:26:64:21:87:76:b0:c3:ce:
                    df:7d:bd:26:f2:2a:b1:d3:05:67:72:52:4a:19:e1:
                    3d:ab
                Exponent: 65537 (0x10001)
        X509v3 extensions:
            X509v3 Subject Key Identifier:
                78:87:D8:AC:5F:0D:C7:15:CA:BC:7D:71:DF:E9:AF:13:FD:C1:0B:B5
            X509v3 Authority Key Identifier:
                keyid:78:87:D8:AC:5F:0D:C7:15:CA:BC:7D:71:DF:E9:AF:13:FD:C1:0B:B5

            X509v3 Basic Constraints: critical
                CA:TRUE
    Signature Algorithm: sha256WithRSAEncryption
         06:b4:da:ca:2c:7b:46:9c:61:03:9b:ba:38:e8:8e:25:30:64:
         56:08:01:bc:da:1a:ff:60:be:aa:fd:63:65:92:6e:39:b1:8c:
         de:fb:8c:92:fb:6a:a1:02:11:bb:ed:d6:40:fa:0c:0a:99:8d:
         74:db:9f:8f:e9:9d:e4:98:51:b5:c6:30:ff:08:19:19:4f:bd:
         4c:05:03:f6:20:99:79:24:b7:39:cc:c8:70:02:be:c1:90:b7:
         b7:e5:5b:40:ce:9f:9c:37:19:c4:81:b0:10:ac:d2:6c:33:09:
         6c:6e:88:43:fc:23:24:8d:34:c6:46:b0:79:dc:46:97:92:9c:
         53:b6:3d:48:3d:07:2f:b4:d5:b0:4a:de:e2:e6:7c:02:18:e4:
         c1:c5:58:51:92:2c:a6:b2:50:53:d1:ae:1f:50:1d:1f:35:45:
         bd:b6:24:7e:cf:e9:d3:a9:1d:84:26:51:7e:da:de:81:3d:5d:
         29:43:66:d8:71:6f:81:4e:1d:a8:9f:06:85:cd:ee:19:17:38:
         9f:03:ad:8e:06:09:b0:94:16:57:ad:96:cc:25:4b:80:3f:91:
         b0:dd:dc:ec:fb:0f:ea:93:10:10:48:90:06:82:5e:35:93:35:
         1f:fb:a5:81:53:2b:27:e8:59:1c:3b:8d:3d:41:1d:08:96:39:
         2b:4f:aa:3e
-----BEGIN CERTIFICATE-----
MIIDijCCAnKgAwIBAgIBWTANBgkqhkiG9w0BAQsFADBeMQswCQYDVQQGEwJVUzET
MBEGA1UECAwKV2FzaGluZ3RvbjERMA8GA1UEBwwIQmVsbGV2dWUxEzARBgNVBAoM
Ckdvb2dsZSBJbmMxEjAQBgNVBAMMCUNhc3QgUm9vdDAeFw0xOTEyMTIwMjU2NTFa
Fw0yMDEyMTEwMjU2NTFaMF4xCzAJBgNVBAYTAlVTMRMwEQYDVQQIDApXYXNoaW5n
dG9uMREwDwYDVQQHDAhCZWxsZXZ1ZTETMBEGA1UECgwKR29vZ2xlIEluYzESMBAG
A1UEAwwJQ2FzdCBSb290MIIBIjANBgkqhkiG9w0BAQEFAAOCAQ8AMIIBCgKCAQEA
zEOLm3pO/tfo9bSY9dAa6LXpegFoHRPeT79R9k+sPuwu+aGbM/EB0ZrZkUjXzVWI
RSKPd9Myd091/bSXb4KeiMW9JJoNjGWRSX9pNc+Cnu+g17nL8diFKGJI+5+jo6WB
BuWVVAtnwzzHewjx5jFeqM+g4pxEkDL7ftmEKxj0qzKcCplTJzPPTM3y+te+UkDR
RcE6Ua7LpAxmZlovL66biOZp38XaVj8dGp6V6OxfrRTZ+4N2MeHtv8vc2k/KlQw9
K/2zN8TZ5VwbcJFK7Gwu7JokDZLfvpMzjko3Mobb1Qichm5WcJ7kJmQhh3aww87f
fb0m8iqx0wVnclJKGeE9qwIDAQABo1MwUTAdBgNVHQ4EFgQUeIfYrF8NxxXKvH1x
3+mvE/3BC7UwHwYDVR0jBBgwFoAUeIfYrF8NxxXKvH1x3+mvE/3BC7UwDwYDVR0T
AQH/BAUwAwEB/zANBgkqhkiG9w0BAQsFAAOCAQEABrTayix7RpxhA5u6OOiOJTBk
VggBvNoa/2C+qv1jZZJuObGM3vuMkvtqoQIRu+3WQPoMCpmNdNufj+md5JhRtcYw
/wgZGU+9TAUD9iCZeSS3OczIcAK+wZC3t+VbQM6fnDcZxIGwEKzSbDMJbG6IQ/wj
JI00xkawedxGl5KcU7Y9SD0HL7TVsEre4uZ8AhjkwcVYUZIsprJQU9GuH1AdHzVF
vbYkfs/p06kdhCZRftregT1dKUNm2HFvgU4dqJ8Ghc3uGRc4nwOtjgYJsJQWV62W
zCVLgD+RsN3c7PsP6pMQEEiQBoJeNZM1H/ulgVMrJ+hZHDuNPUEdCJY5K0+qPg==
-----END CERTIFICATE-----
